	.file	"challenge1.cpp"
	.text
	.section	.text$_ZSt23__is_constant_evaluatedv,"x"
	.linkonce discard
	.globl	_ZSt23__is_constant_evaluatedv
	.def	_ZSt23__is_constant_evaluatedv;	.scl	2;	.type	32;	.endef
	.seh_proc	_ZSt23__is_constant_evaluatedv
_ZSt23__is_constant_evaluatedv:
.LFB1:
	pushq	%rbp
	.seh_pushreg	%rbp
	movq	%rsp, %rbp
	.seh_setframe	%rbp, 0
	.seh_endprologue
	movl	$0, %eax
	popq	%rbp
	ret
	.seh_endproc
	.section	.text$_ZNSt11char_traitsIcE2ltERKcS2_,"x"
	.linkonce discard
	.globl	_ZNSt11char_traitsIcE2ltERKcS2_
	.def	_ZNSt11char_traitsIcE2ltERKcS2_;	.scl	2;	.type	32;	.endef
	.seh_proc	_ZNSt11char_traitsIcE2ltERKcS2_
_ZNSt11char_traitsIcE2ltERKcS2_:
.LFB243:
	pushq	%rbp
	.seh_pushreg	%rbp
	movq	%rsp, %rbp
	.seh_setframe	%rbp, 0
	.seh_endprologue
	movq	%rcx, 16(%rbp)
	movq	%rdx, 24(%rbp)
	movq	16(%rbp), %rax
	movzbl	(%rax), %eax
	movl	%eax, %edx
	movq	24(%rbp), %rax
	movzbl	(%rax), %eax
	cmpb	%al, %dl
	setb	%al
	popq	%rbp
	ret
	.seh_endproc
	.section	.text$_ZNSt11char_traitsIcE7compareEPKcS2_y,"x"
	.linkonce discard
	.globl	_ZNSt11char_traitsIcE7compareEPKcS2_y
	.def	_ZNSt11char_traitsIcE7compareEPKcS2_y;	.scl	2;	.type	32;	.endef
	.seh_proc	_ZNSt11char_traitsIcE7compareEPKcS2_y
_ZNSt11char_traitsIcE7compareEPKcS2_y:
.LFB244:
	pushq	%rbp
	.seh_pushreg	%rbp
	movq	%rsp, %rbp
	.seh_setframe	%rbp, 0
	subq	$48, %rsp
	.seh_stackalloc	48
	.seh_endprologue
	movq	%rcx, 16(%rbp)
	movq	%rdx, 24(%rbp)
	movq	%r8, 32(%rbp)
	cmpq	$0, 32(%rbp)
	jne	.L6
	movl	$0, %eax
	jmp	.L7
.L6:
	call	_ZSt23__is_constant_evaluatedv
	testb	%al, %al
	je	.L8
	movq	$0, -8(%rbp)
	jmp	.L9
.L12:
	movq	24(%rbp), %rdx
	movq	-8(%rbp), %rax
	addq	%rax, %rdx
	movq	16(%rbp), %rcx
	movq	-8(%rbp), %rax
	addq	%rcx, %rax
	movq	%rax, %rcx
	call	_ZNSt11char_traitsIcE2ltERKcS2_
	testb	%al, %al
	je	.L10
	movl	$-1, %eax
	jmp	.L7
.L10:
	movq	16(%rbp), %rdx
	movq	-8(%rbp), %rax
	addq	%rax, %rdx
	movq	24(%rbp), %rcx
	movq	-8(%rbp), %rax
	addq	%rcx, %rax
	movq	%rax, %rcx
	call	_ZNSt11char_traitsIcE2ltERKcS2_
	testb	%al, %al
	je	.L11
	movl	$1, %eax
	jmp	.L7
.L11:
	addq	$1, -8(%rbp)
.L9:
	movq	-8(%rbp), %rax
	cmpq	32(%rbp), %rax
	jb	.L12
	movl	$0, %eax
	jmp	.L7
.L8:
	movq	32(%rbp), %rcx
	movq	24(%rbp), %rdx
	movq	16(%rbp), %rax
	movq	%rcx, %r8
	movq	%rax, %rcx
	call	memcmp
	nop
.L7:
	addq	$48, %rsp
	popq	%rbp
	ret
	.seh_endproc
	.section	.text$_ZNSt7__cxx119to_stringEx,"x"
	.linkonce discard
	.globl	_ZNSt7__cxx119to_stringEx
	.def	_ZNSt7__cxx119to_stringEx;	.scl	2;	.type	32;	.endef
	.seh_proc	_ZNSt7__cxx119to_stringEx
_ZNSt7__cxx119to_stringEx:
.LFB1421:
	pushq	%rbp
	.seh_pushreg	%rbp
	pushq	%rbx
	.seh_pushreg	%rbx
	subq	$88, %rsp
	.seh_stackalloc	88
	leaq	80(%rsp), %rbp
	.seh_setframe	%rbp, 80
	.seh_endprologue
	movq	%rcx, 32(%rbp)
	movq	%rdx, 40(%rbp)
	movq	40(%rbp), %rax
	shrq	$63, %rax
	movb	%al, -1(%rbp)
	cmpb	$0, -1(%rbp)
	je	.L14
	movq	40(%rbp), %rax
	negq	%rax
	jmp	.L15
.L14:
	movq	40(%rbp), %rax
.L15:
	movq	%rax, -16(%rbp)
	movq	-16(%rbp), %rax
	movl	$10, %edx
	movq	%rax, %rcx
	call	_ZNSt8__detail14__to_chars_lenIyEEjT_i
	movl	%eax, -20(%rbp)
	leaq	-33(%rbp), %rax
	movq	%rax, -32(%rbp)
	nop
	nop
	movzbl	-1(%rbp), %edx
	movl	-20(%rbp), %eax
	addl	%edx, %eax
	movl	%eax, %ecx
	leaq	-33(%rbp), %rdx
	movq	32(%rbp), %rax
	movq	%rdx, %r9
	movl	$45, %r8d
	movq	%rcx, %rdx
	movq	%rax, %rcx
.LEHB0:
	call	_ZNSt7__cxx1112basic_stringIcSt11char_traitsIcESaIcEEC1IS3_EEycRKS3_
.LEHE0:
	leaq	-33(%rbp), %rax
	movq	%rax, %rcx
	call	_ZNSt15__new_allocatorIcED2Ev
	nop
	movzbl	-1(%rbp), %edx
	movq	32(%rbp), %rax
	movq	%rax, %rcx
.LEHB1:
	call	_ZNSt7__cxx1112basic_stringIcSt11char_traitsIcESaIcEEixEy
.LEHE1:
	movq	%rax, %rcx
	movq	-16(%rbp), %rdx
	movl	-20(%rbp), %eax
	movq	%rdx, %r8
	movl	%eax, %edx
	call	_ZNSt8__detail18__to_chars_10_implIyEEvPcjT_
	jmp	.L21
.L19:
	movq	%rax, %rbx
	leaq	-33(%rbp), %rax
	movq	%rax, %rcx
	call	_ZNSt15__new_allocatorIcED2Ev
	nop
	movq	%rbx, %rax
	movq	%rax, %rcx
.LEHB2:
	call	_Unwind_Resume
.L20:
	movq	%rax, %rbx
	movq	32(%rbp), %rax
	movq	%rax, %rcx
	call	_ZNSt7__cxx1112basic_stringIcSt11char_traitsIcESaIcEED1Ev
	movq	%rbx, %rax
	movq	%rax, %rcx
	call	_Unwind_Resume
.LEHE2:
.L21:
	movq	32(%rbp), %rax
	addq	$88, %rsp
	popq	%rbx
	popq	%rbp
	ret
	.def	__gxx_personality_seh0;	.scl	2;	.type	32;	.endef
	.seh_handler	__gxx_personality_seh0, @unwind, @except
	.seh_handlerdata
.LLSDA1421:
	.byte	0xff
	.byte	0xff
	.byte	0x1
	.uleb128 .LLSDACSE1421-.LLSDACSB1421
.LLSDACSB1421:
	.uleb128 .LEHB0-.LFB1421
	.uleb128 .LEHE0-.LEHB0
	.uleb128 .L19-.LFB1421
	.uleb128 0
	.uleb128 .LEHB1-.LFB1421
	.uleb128 .LEHE1-.LEHB1
	.uleb128 .L20-.LFB1421
	.uleb128 0
	.uleb128 .LEHB2-.LFB1421
	.uleb128 .LEHE2-.LEHB2
	.uleb128 0
	.uleb128 0
.LLSDACSE1421:
	.section	.text$_ZNSt7__cxx119to_stringEx,"x"
	.linkonce discard
	.seh_endproc
	.def	__main;	.scl	2;	.type	32;	.endef
	.section .rdata,"dr"
.LC0:
	.ascii "Enter your name: \0"
.LC1:
	.ascii "Invalid operation\0"
.LC2:
	.ascii "Enter the Valid key: \0"
.LC3:
	.ascii "Valid key - [ctf_key]\0"
.LC4:
	.ascii "Invalid key - Try harder!\0"
	.text
	.globl	main
	.def	main;	.scl	2;	.type	32;	.endef
	.seh_proc	main
main:
.LFB2224:
	pushq	%rbp
	.seh_pushreg	%rbp
	pushq	%rbx
	.seh_pushreg	%rbx
	subq	$200, %rsp
	.seh_stackalloc	200
	leaq	192(%rsp), %rbp
	.seh_setframe	%rbp, 192
	.seh_endprologue
	call	__main
	leaq	-112(%rbp), %rax
	movq	%rax, %rcx
	call	_ZNSt7__cxx1112basic_stringIcSt11char_traitsIcESaIcEEC1Ev
	leaq	-144(%rbp), %rax
	movq	%rax, %rcx
	call	_ZNSt7__cxx1112basic_stringIcSt11char_traitsIcESaIcEEC1Ev
	leaq	.LC0(%rip), %rax
	movq	%rax, %rdx
	movq	.refptr._ZSt4cout(%rip), %rax
	movq	%rax, %rcx
.LEHB3:
	call	_ZStlsISt11char_traitsIcEERSt13basic_ostreamIcT_ES5_PKc
	leaq	-112(%rbp), %rax
	movq	%rax, %rdx
	movq	.refptr._ZSt3cin(%rip), %rax
	movq	%rax, %rcx
	call	_ZStrsIcSt11char_traitsIcESaIcEERSt13basic_istreamIT_T0_ES7_RNSt7__cxx1112basic_stringIS4_S5_T1_EE
	movq	$1, -8(%rbp)
	movl	$0, -12(%rbp)
	leaq	-112(%rbp), %rax
	movq	%rax, -24(%rbp)
	movq	-24(%rbp), %rax
	movq	%rax, %rcx
	call	_ZNSt7__cxx1112basic_stringIcSt11char_traitsIcESaIcEE5beginEv
	movq	%rax, -152(%rbp)
	movq	-24(%rbp), %rax
	movq	%rax, %rcx
	call	_ZNSt7__cxx1112basic_stringIcSt11char_traitsIcESaIcEE3endEv
	movq	%rax, -160(%rbp)
	jmp	.L23
.L24:
	leaq	-152(%rbp), %rax
	movq	%rax, %rcx
	call	_ZNK9__gnu_cxx17__normal_iteratorIPcNSt7__cxx1112basic_stringIcSt11char_traitsIcESaIcEEEEdeEv
	movzbl	(%rax), %eax
	movb	%al, -33(%rbp)
	movsbl	-33(%rbp), %eax
	movl	%eax, -40(%rbp)
	movl	-40(%rbp), %eax
	cltq
	movq	-8(%rbp), %rdx
	imulq	%rdx, %rax
	movq	%rax, -8(%rbp)
	movl	-40(%rbp), %eax
	addl	%eax, -12(%rbp)
	leaq	-152(%rbp), %rax
	movq	%rax, %rcx
	call	_ZN9__gnu_cxx17__normal_iteratorIPcNSt7__cxx1112basic_stringIcSt11char_traitsIcESaIcEEEEppEv
.L23:
	leaq	-160(%rbp), %rdx
	leaq	-152(%rbp), %rax
	movq	%rax, %rcx
	call	_ZN9__gnu_cxxneIPcNSt7__cxx1112basic_stringIcSt11char_traitsIcESaIcEEEEEbRKNS_17__normal_iteratorIT_T0_EESD_
	testb	%al, %al
	jne	.L24
	cmpl	$0, -12(%rbp)
	jne	.L25
	leaq	.LC1(%rip), %rax
	movq	%rax, %rdx
	movq	.refptr._ZSt4cout(%rip), %rax
	movq	%rax, %rcx
	call	_ZStlsISt11char_traitsIcEERSt13basic_ostreamIcT_ES5_PKc
	movq	%rax, %rcx
	movq	.refptr._ZSt4endlIcSt11char_traitsIcEERSt13basic_ostreamIT_T0_ES6_(%rip), %rax
	movq	%rax, %rdx
	call	_ZNSolsEPFRSoS_E
	movl	$1, %ebx
	jmp	.L26
.L25:
	movl	-12(%rbp), %eax
	movslq	%eax, %rbx
	movq	-8(%rbp), %rax
	cqto
	idivq	%rbx
	movq	%rax, -32(%rbp)
	leaq	.LC2(%rip), %rax
	movq	%rax, %rdx
	movq	.refptr._ZSt4cout(%rip), %rax
	movq	%rax, %rcx
	call	_ZStlsISt11char_traitsIcEERSt13basic_ostreamIcT_ES5_PKc
	leaq	-144(%rbp), %rax
	movq	%rax, %rdx
	movq	.refptr._ZSt3cin(%rip), %rax
	movq	%rax, %rcx
	call	_ZStrsIcSt11char_traitsIcESaIcEERSt13basic_istreamIT_T0_ES7_RNSt7__cxx1112basic_stringIS4_S5_T1_EE
	leaq	-80(%rbp), %rax
	movq	-32(%rbp), %rdx
	movq	%rax, %rcx
	call	_ZNSt7__cxx119to_stringEx
	leaq	-144(%rbp), %rdx
	leaq	-80(%rbp), %rax
	movq	%rax, %rcx
	call	_ZSteqIcSt11char_traitsIcESaIcEEbRKNSt7__cxx1112basic_stringIT_T0_T1_EESA_
	movl	%eax, %ebx
	leaq	-80(%rbp), %rax
	movq	%rax, %rcx
	call	_ZNSt7__cxx1112basic_stringIcSt11char_traitsIcESaIcEED1Ev
	testb	%bl, %bl
	je	.L27
	leaq	.LC3(%rip), %rax
	movq	%rax, %rdx
	movq	.refptr._ZSt4cout(%rip), %rax
	movq	%rax, %rcx
	call	_ZStlsISt11char_traitsIcEERSt13basic_ostreamIcT_ES5_PKc
	movq	%rax, %rcx
	movq	.refptr._ZSt4endlIcSt11char_traitsIcEERSt13basic_ostreamIT_T0_ES6_(%rip), %rax
	movq	%rax, %rdx
	call	_ZNSolsEPFRSoS_E
	jmp	.L28
.L27:
	leaq	.LC4(%rip), %rax
	movq	%rax, %rdx
	movq	.refptr._ZSt4cout(%rip), %rax
	movq	%rax, %rcx
	call	_ZStlsISt11char_traitsIcEERSt13basic_ostreamIcT_ES5_PKc
	movq	%rax, %rcx
	movq	.refptr._ZSt4endlIcSt11char_traitsIcEERSt13basic_ostreamIT_T0_ES6_(%rip), %rax
	movq	%rax, %rdx
	call	_ZNSolsEPFRSoS_E
.LEHE3:
.L28:
	movl	$0, %ebx
.L26:
	leaq	-144(%rbp), %rax
	movq	%rax, %rcx
	call	_ZNSt7__cxx1112basic_stringIcSt11char_traitsIcESaIcEED1Ev
	leaq	-112(%rbp), %rax
	movq	%rax, %rcx
	call	_ZNSt7__cxx1112basic_stringIcSt11char_traitsIcESaIcEED1Ev
	movl	%ebx, %eax
	jmp	.L32
.L31:
	movq	%rax, %rbx
	leaq	-144(%rbp), %rax
	movq	%rax, %rcx
	call	_ZNSt7__cxx1112basic_stringIcSt11char_traitsIcESaIcEED1Ev
	leaq	-112(%rbp), %rax
	movq	%rax, %rcx
	call	_ZNSt7__cxx1112basic_stringIcSt11char_traitsIcESaIcEED1Ev
	movq	%rbx, %rax
	movq	%rax, %rcx
.LEHB4:
	call	_Unwind_Resume
.LEHE4:
.L32:
	addq	$200, %rsp
	popq	%rbx
	popq	%rbp
	ret
	.seh_handler	__gxx_personality_seh0, @unwind, @except
	.seh_handlerdata
.LLSDA2224:
	.byte	0xff
	.byte	0xff
	.byte	0x1
	.uleb128 .LLSDACSE2224-.LLSDACSB2224
.LLSDACSB2224:
	.uleb128 .LEHB3-.LFB2224
	.uleb128 .LEHE3-.LEHB3
	.uleb128 .L31-.LFB2224
	.uleb128 0
	.uleb128 .LEHB4-.LFB2224
	.uleb128 .LEHE4-.LEHB4
	.uleb128 0
	.uleb128 0
.LLSDACSE2224:
	.text
	.seh_endproc
	.section	.text$_ZNSt7__cxx1112basic_stringIcSt11char_traitsIcESaIcEE12_Alloc_hiderD1Ev,"x"
	.linkonce discard
	.align 2
	.globl	_ZNSt7__cxx1112basic_stringIcSt11char_traitsIcESaIcEE12_Alloc_hiderD1Ev
	.def	_ZNSt7__cxx1112basic_stringIcSt11char_traitsIcESaIcEE12_Alloc_hiderD1Ev;	.scl	2;	.type	32;	.endef
	.seh_proc	_ZNSt7__cxx1112basic_stringIcSt11char_traitsIcESaIcEE12_Alloc_hiderD1Ev
_ZNSt7__cxx1112basic_stringIcSt11char_traitsIcESaIcEE12_Alloc_hiderD1Ev:
.LFB2336:
	pushq	%rbp
	.seh_pushreg	%rbp
	movq	%rsp, %rbp
	.seh_setframe	%rbp, 0
	subq	$48, %rsp
	.seh_stackalloc	48
	.seh_endprologue
	movq	%rcx, 16(%rbp)
	movq	16(%rbp), %rax
	movq	%rax, -8(%rbp)
	movq	-8(%rbp), %rax
	movq	%rax, %rcx
	call	_ZNSt15__new_allocatorIcED2Ev
	nop
	nop
	addq	$48, %rsp
	popq	%rbp
	ret
	.seh_endproc
	.section	.text$_ZNSt7__cxx1112basic_stringIcSt11char_traitsIcESaIcEEC1IS3_EEycRKS3_,"x"
	.linkonce discard
	.align 2
	.globl	_ZNSt7__cxx1112basic_stringIcSt11char_traitsIcESaIcEEC1IS3_EEycRKS3_
	.def	_ZNSt7__cxx1112basic_stringIcSt11char_traitsIcESaIcEEC1IS3_EEycRKS3_;	.scl	2;	.type	32;	.endef
	.seh_proc	_ZNSt7__cxx1112basic_stringIcSt11char_traitsIcESaIcEEC1IS3_EEycRKS3_
_ZNSt7__cxx1112basic_stringIcSt11char_traitsIcESaIcEEC1IS3_EEycRKS3_:
.LFB2338:
	pushq	%rbp
	.seh_pushreg	%rbp
	pushq	%rbx
	.seh_pushreg	%rbx
	subq	$40, %rsp
	.seh_stackalloc	40
	leaq	32(%rsp), %rbp
	.seh_setframe	%rbp, 32
	.seh_endprologue
	movq	%rcx, 32(%rbp)
	movq	%rdx, 40(%rbp)
	movl	%r8d, %eax
	movq	%r9, 56(%rbp)
	movb	%al, 48(%rbp)
	movq	32(%rbp), %rbx
	movq	32(%rbp), %rax
	movq	%rax, %rcx
	call	_ZNSt7__cxx1112basic_stringIcSt11char_traitsIcESaIcEE13_M_local_dataEv
	movq	56(%rbp), %rdx
	movq	%rdx, %r8
	movq	%rax, %rdx
	movq	%rbx, %rcx
	call	_ZNSt7__cxx1112basic_stringIcSt11char_traitsIcESaIcEE12_Alloc_hiderC1EPcRKS3_
	movsbl	48(%rbp), %ecx
	movq	40(%rbp), %rdx
	movq	32(%rbp), %rax
	movl	%ecx, %r8d
	movq	%rax, %rcx
.LEHB5:
	call	_ZNSt7__cxx1112basic_stringIcSt11char_traitsIcESaIcEE12_M_constructEyc
.LEHE5:
	jmp	.L37
.L36:
	movq	%rax, %rbx
	movq	32(%rbp), %rax
	movq	%rax, %rcx
	call	_ZNSt7__cxx1112basic_stringIcSt11char_traitsIcESaIcEE12_Alloc_hiderD1Ev
	movq	%rbx, %rax
	movq	%rax, %rcx
.LEHB6:
	call	_Unwind_Resume
	nop
.LEHE6:
.L37:
	addq	$40, %rsp
	popq	%rbx
	popq	%rbp
	ret
	.seh_handler	__gxx_personality_seh0, @unwind, @except
	.seh_handlerdata
.LLSDA2338:
	.byte	0xff
	.byte	0xff
	.byte	0x1
	.uleb128 .LLSDACSE2338-.LLSDACSB2338
.LLSDACSB2338:
	.uleb128 .LEHB5-.LFB2338
	.uleb128 .LEHE5-.LEHB5
	.uleb128 .L36-.LFB2338
	.uleb128 0
	.uleb128 .LEHB6-.LFB2338
	.uleb128 .LEHE6-.LEHB6
	.uleb128 0
	.uleb128 0
.LLSDACSE2338:
	.section	.text$_ZNSt7__cxx1112basic_stringIcSt11char_traitsIcESaIcEEC1IS3_EEycRKS3_,"x"
	.linkonce discard
	.seh_endproc
	.section	.text$_ZNSt8__detail14__to_chars_lenIyEEjT_i,"x"
	.linkonce discard
	.globl	_ZNSt8__detail14__to_chars_lenIyEEjT_i
	.def	_ZNSt8__detail14__to_chars_lenIyEEjT_i;	.scl	2;	.type	32;	.endef
	.seh_proc	_ZNSt8__detail14__to_chars_lenIyEEjT_i
_ZNSt8__detail14__to_chars_lenIyEEjT_i:
.LFB2350:
	pushq	%rbp
	.seh_pushreg	%rbp
	movq	%rsp, %rbp
	.seh_setframe	%rbp, 0
	subq	$16, %rsp
	.seh_stackalloc	16
	.seh_endprologue
	movq	%rcx, 16(%rbp)
	movl	%edx, 24(%rbp)
	movl	$1, -4(%rbp)
	movl	24(%rbp), %eax
	imull	%eax, %eax
	movl	%eax, -8(%rbp)
	movl	24(%rbp), %eax
	movl	-8(%rbp), %edx
	imull	%edx, %eax
	movl	%eax, -12(%rbp)
	movl	24(%rbp), %eax
	movl	-12(%rbp), %edx
	imull	%edx, %eax
	movl	%eax, -16(%rbp)
.L44:
	movl	24(%rbp), %eax
	movl	%eax, %eax
	cmpq	%rax, 16(%rbp)
	jnb	.L39
	movl	-4(%rbp), %eax
	jmp	.L40
.L39:
	movl	-8(%rbp), %eax
	cmpq	%rax, 16(%rbp)
	jnb	.L41
	movl	-4(%rbp), %eax
	addl	$1, %eax
	jmp	.L40
.L41:
	movl	-12(%rbp), %eax
	cmpq	%rax, 16(%rbp)
	jnb	.L42
	movl	-4(%rbp), %eax
	addl	$2, %eax
	jmp	.L40
.L42:
	movl	-16(%rbp), %eax
	cmpq	%rax, 16(%rbp)
	jnb	.L43
	movl	-4(%rbp), %eax
	addl	$3, %eax
	jmp	.L40
.L43:
	movl	-16(%rbp), %ecx
	movq	16(%rbp), %rax
	movl	$0, %edx
	divq	%rcx
	movq	%rax, 16(%rbp)
	addl	$4, -4(%rbp)
	jmp	.L44
.L40:
	addq	$16, %rsp
	popq	%rbp
	ret
	.seh_endproc
	.section	.text$_ZNSt8__detail18__to_chars_10_implIyEEvPcjT_,"x"
	.linkonce discard
	.globl	_ZNSt8__detail18__to_chars_10_implIyEEvPcjT_
	.def	_ZNSt8__detail18__to_chars_10_implIyEEvPcjT_;	.scl	2;	.type	32;	.endef
	.seh_proc	_ZNSt8__detail18__to_chars_10_implIyEEvPcjT_
_ZNSt8__detail18__to_chars_10_implIyEEvPcjT_:
.LFB2351:
	pushq	%rbp
	.seh_pushreg	%rbp
	movq	%rsp, %rbp
	.seh_setframe	%rbp, 0
	subq	$240, %rsp
	.seh_stackalloc	240
	.seh_endprologue
	movq	%rcx, 16(%rbp)
	movl	%edx, 24(%rbp)
	movq	%r8, 32(%rbp)
	movabsq	$3688503277381496880, %rax
	movabsq	$3976738051646829616, %rdx
	movq	%rax, -240(%rbp)
	movq	%rdx, -232(%rbp)
	movabsq	$3544667369688283184, %rax
	movabsq	$3832902143785906737, %rdx
	movq	%rax, -224(%rbp)
	movq	%rdx, -216(%rbp)
	movabsq	$4121136918051239473, %rax
	movabsq	$3689066235924983858, %rdx
	movq	%rax, -208(%rbp)
	movq	%rdx, -200(%rbp)
	movabsq	$3977301010190316594, %rax
	movabsq	$3545230328231770162, %rdx
	movq	%rax, -192(%rbp)
	movq	%rdx, -184(%rbp)
	movabsq	$3833465102329393715, %rax
	movabsq	$4121699876594726451, %rdx
	movq	%rax, -176(%rbp)
	movq	%rdx, -168(%rbp)
	movabsq	$3689629194468470836, %rax
	movabsq	$3977863968733803572, %rdx
	movq	%rax, -160(%rbp)
	movq	%rdx, -152(%rbp)
	movabsq	$3545793286775257140, %rax
	movabsq	$3834028060872880693, %rdx
	movq	%rax, -144(%rbp)
	movq	%rdx, -136(%rbp)
	movabsq	$4122262835138213429, %rax
	movabsq	$3690192153011957814, %rdx
	movq	%rax, -128(%rbp)
	movq	%rdx, -120(%rbp)
	movabsq	$3978426927277290550, %rax
	movabsq	$3546356245318744118, %rdx
	movq	%rax, -112(%rbp)
	movq	%rdx, -104(%rbp)
	movabsq	$3834591019416367671, %rax
	movabsq	$4122825793681700407, %rdx
	movq	%rax, -96(%rbp)
	movq	%rdx, -88(%rbp)
	movabsq	$3690755111555444792, %rax
	movabsq	$3978989885820777528, %rdx
	movq	%rax, -80(%rbp)
	movq	%rdx, -72(%rbp)
	movabsq	$3546919203862231096, %rax
	movabsq	$3835153977959854649, %rdx
	movq	%rax, -64(%rbp)
	movq	%rdx, -56(%rbp)
	movabsq	$4122263930388298034, %rax
	movabsq	$16106987313379638, %rdx
	movq	%rax, -55(%rbp)
	movq	%rdx, -47(%rbp)
	movl	24(%rbp), %eax
	subl	$1, %eax
	movl	%eax, -4(%rbp)
	jmp	.L46
.L47:
	movq	32(%rbp), %rcx
	movq	%rcx, %rax
	shrq	$2, %rax
	movabsq	$2951479051793528259, %rdx
	mulq	%rdx
	shrq	$2, %rdx
	movq	%rdx, %rax
	salq	$2, %rax
	addq	%rdx, %rax
	leaq	0(,%rax,4), %rdx
	addq	%rdx, %rax
	salq	$2, %rax
	subq	%rax, %rcx
	movq	%rcx, %rdx
	leaq	(%rdx,%rdx), %rax
	movq	%rax, -24(%rbp)
	movq	32(%rbp), %rax
	shrq	$2, %rax
	movabsq	$2951479051793528259, %rdx
	mulq	%rdx
	movq	%rdx, %rax
	shrq	$2, %rax
	movq	%rax, 32(%rbp)
	movq	-24(%rbp), %rax
	addq	$1, %rax
	movl	-4(%rbp), %ecx
	movq	16(%rbp), %rdx
	addq	%rcx, %rdx
	movzbl	-240(%rbp,%rax), %eax
	movb	%al, (%rdx)
	movl	-4(%rbp), %eax
	subl	$1, %eax
	movl	%eax, %edx
	movq	16(%rbp), %rax
	addq	%rax, %rdx
	leaq	-240(%rbp), %rcx
	movq	-24(%rbp), %rax
	addq	%rcx, %rax
	movzbl	(%rax), %eax
	movb	%al, (%rdx)
	subl	$2, -4(%rbp)
.L46:
	cmpq	$99, 32(%rbp)
	ja	.L47
	cmpq	$9, 32(%rbp)
	jbe	.L48
	movq	32(%rbp), %rax
	addq	%rax, %rax
	movq	%rax, -16(%rbp)
	movq	-16(%rbp), %rax
	addq	$1, %rax
	movq	16(%rbp), %rdx
	addq	$1, %rdx
	movzbl	-240(%rbp,%rax), %eax
	movb	%al, (%rdx)
	leaq	-240(%rbp), %rdx
	movq	-16(%rbp), %rax
	addq	%rdx, %rax
	movzbl	(%rax), %edx
	movq	16(%rbp), %rax
	movb	%dl, (%rax)
	jmp	.L50
.L48:
	movq	32(%rbp), %rax
	addl	$48, %eax
	movl	%eax, %edx
	movq	16(%rbp), %rax
	movb	%dl, (%rax)
.L50:
	nop
	addq	$240, %rsp
	popq	%rbp
	ret
	.seh_endproc
	.section	.text$_ZN9__gnu_cxxneIPcNSt7__cxx1112basic_stringIcSt11char_traitsIcESaIcEEEEEbRKNS_17__normal_iteratorIT_T0_EESD_,"x"
	.linkonce discard
	.globl	_ZN9__gnu_cxxneIPcNSt7__cxx1112basic_stringIcSt11char_traitsIcESaIcEEEEEbRKNS_17__normal_iteratorIT_T0_EESD_
	.def	_ZN9__gnu_cxxneIPcNSt7__cxx1112basic_stringIcSt11char_traitsIcESaIcEEEEEbRKNS_17__normal_iteratorIT_T0_EESD_;	.scl	2;	.type	32;	.endef
	.seh_proc	_ZN9__gnu_cxxneIPcNSt7__cxx1112basic_stringIcSt11char_traitsIcESaIcEEEEEbRKNS_17__normal_iteratorIT_T0_EESD_
_ZN9__gnu_cxxneIPcNSt7__cxx1112basic_stringIcSt11char_traitsIcESaIcEEEEEbRKNS_17__normal_iteratorIT_T0_EESD_:
.LFB2487:
	pushq	%rbp
	.seh_pushreg	%rbp
	pushq	%rbx
	.seh_pushreg	%rbx
	subq	$40, %rsp
	.seh_stackalloc	40
	leaq	32(%rsp), %rbp
	.seh_setframe	%rbp, 32
	.seh_endprologue
	movq	%rcx, 32(%rbp)
	movq	%rdx, 40(%rbp)
	movq	32(%rbp), %rax
	movq	%rax, %rcx
	call	_ZNK9__gnu_cxx17__normal_iteratorIPcNSt7__cxx1112basic_stringIcSt11char_traitsIcESaIcEEEE4baseEv
	movq	(%rax), %rbx
	movq	40(%rbp), %rax
	movq	%rax, %rcx
	call	_ZNK9__gnu_cxx17__normal_iteratorIPcNSt7__cxx1112basic_stringIcSt11char_traitsIcESaIcEEEE4baseEv
	movq	(%rax), %rax
	cmpq	%rax, %rbx
	setne	%al
	addq	$40, %rsp
	popq	%rbx
	popq	%rbp
	ret
	.seh_endproc
	.section	.text$_ZN9__gnu_cxx17__normal_iteratorIPcNSt7__cxx1112basic_stringIcSt11char_traitsIcESaIcEEEEppEv,"x"
	.linkonce discard
	.align 2
	.globl	_ZN9__gnu_cxx17__normal_iteratorIPcNSt7__cxx1112basic_stringIcSt11char_traitsIcESaIcEEEEppEv
	.def	_ZN9__gnu_cxx17__normal_iteratorIPcNSt7__cxx1112basic_stringIcSt11char_traitsIcESaIcEEEEppEv;	.scl	2;	.type	32;	.endef
	.seh_proc	_ZN9__gnu_cxx17__normal_iteratorIPcNSt7__cxx1112basic_stringIcSt11char_traitsIcESaIcEEEEppEv
_ZN9__gnu_cxx17__normal_iteratorIPcNSt7__cxx1112basic_stringIcSt11char_traitsIcESaIcEEEEppEv:
.LFB2488:
	pushq	%rbp
	.seh_pushreg	%rbp
	movq	%rsp, %rbp
	.seh_setframe	%rbp, 0
	.seh_endprologue
	movq	%rcx, 16(%rbp)
	movq	16(%rbp), %rax
	movq	(%rax), %rax
	leaq	1(%rax), %rdx
	movq	16(%rbp), %rax
	movq	%rdx, (%rax)
	movq	16(%rbp), %rax
	popq	%rbp
	ret
	.seh_endproc
	.section	.text$_ZNK9__gnu_cxx17__normal_iteratorIPcNSt7__cxx1112basic_stringIcSt11char_traitsIcESaIcEEEEdeEv,"x"
	.linkonce discard
	.align 2
	.globl	_ZNK9__gnu_cxx17__normal_iteratorIPcNSt7__cxx1112basic_stringIcSt11char_traitsIcESaIcEEEEdeEv
	.def	_ZNK9__gnu_cxx17__normal_iteratorIPcNSt7__cxx1112basic_stringIcSt11char_traitsIcESaIcEEEEdeEv;	.scl	2;	.type	32;	.endef
	.seh_proc	_ZNK9__gnu_cxx17__normal_iteratorIPcNSt7__cxx1112basic_stringIcSt11char_traitsIcESaIcEEEEdeEv
_ZNK9__gnu_cxx17__normal_iteratorIPcNSt7__cxx1112basic_stringIcSt11char_traitsIcESaIcEEEEdeEv:
.LFB2489:
	pushq	%rbp
	.seh_pushreg	%rbp
	movq	%rsp, %rbp
	.seh_setframe	%rbp, 0
	.seh_endprologue
	movq	%rcx, 16(%rbp)
	movq	16(%rbp), %rax
	movq	(%rax), %rax
	popq	%rbp
	ret
	.seh_endproc
	.section	.text$_ZSteqIcSt11char_traitsIcESaIcEEbRKNSt7__cxx1112basic_stringIT_T0_T1_EESA_,"x"
	.linkonce discard
	.globl	_ZSteqIcSt11char_traitsIcESaIcEEbRKNSt7__cxx1112basic_stringIT_T0_T1_EESA_
	.def	_ZSteqIcSt11char_traitsIcESaIcEEbRKNSt7__cxx1112basic_stringIT_T0_T1_EESA_;	.scl	2;	.type	32;	.endef
	.seh_proc	_ZSteqIcSt11char_traitsIcESaIcEEbRKNSt7__cxx1112basic_stringIT_T0_T1_EESA_
_ZSteqIcSt11char_traitsIcESaIcEEbRKNSt7__cxx1112basic_stringIT_T0_T1_EESA_:
.LFB2492:
	pushq	%rbp
	.seh_pushreg	%rbp
	pushq	%rsi
	.seh_pushreg	%rsi
	pushq	%rbx
	.seh_pushreg	%rbx
	subq	$32, %rsp
	.seh_stackalloc	32
	leaq	32(%rsp), %rbp
	.seh_setframe	%rbp, 32
	.seh_endprologue
	movq	%rcx, 32(%rbp)
	movq	%rdx, 40(%rbp)
	movq	32(%rbp), %rax
	movq	%rax, %rcx
	call	_ZNKSt7__cxx1112basic_stringIcSt11char_traitsIcESaIcEE4sizeEv
	movq	%rax, %rbx
	movq	40(%rbp), %rax
	movq	%rax, %rcx
	call	_ZNKSt7__cxx1112basic_stringIcSt11char_traitsIcESaIcEE4sizeEv
	cmpq	%rax, %rbx
	jne	.L58
	movq	32(%rbp), %rax
	movq	%rax, %rcx
	call	_ZNKSt7__cxx1112basic_stringIcSt11char_traitsIcESaIcEE4sizeEv
	movq	%rax, %rsi
	movq	40(%rbp), %rax
	movq	%rax, %rcx
	call	_ZNKSt7__cxx1112basic_stringIcSt11char_traitsIcESaIcEE4dataEv
	movq	%rax, %rbx
	movq	32(%rbp), %rax
	movq	%rax, %rcx
	call	_ZNKSt7__cxx1112basic_stringIcSt11char_traitsIcESaIcEE4dataEv
	movq	%rsi, %r8
	movq	%rbx, %rdx
	movq	%rax, %rcx
	call	_ZNSt11char_traitsIcE7compareEPKcS2_y
	testl	%eax, %eax
	jne	.L58
	movl	$1, %eax
	jmp	.L59
.L58:
	movl	$0, %eax
.L59:
	addq	$32, %rsp
	popq	%rbx
	popq	%rsi
	popq	%rbp
	ret
	.seh_endproc
	.section	.text$_ZNSt15__new_allocatorIcED2Ev,"x"
	.linkonce discard
	.align 2
	.globl	_ZNSt15__new_allocatorIcED2Ev
	.def	_ZNSt15__new_allocatorIcED2Ev;	.scl	2;	.type	32;	.endef
	.seh_proc	_ZNSt15__new_allocatorIcED2Ev
_ZNSt15__new_allocatorIcED2Ev:
.LFB2501:
	pushq	%rbp
	.seh_pushreg	%rbp
	movq	%rsp, %rbp
	.seh_setframe	%rbp, 0
	.seh_endprologue
	movq	%rcx, 16(%rbp)
	nop
	popq	%rbp
	ret
	.seh_endproc
	.section	.text$_ZNK9__gnu_cxx17__normal_iteratorIPcNSt7__cxx1112basic_stringIcSt11char_traitsIcESaIcEEEE4baseEv,"x"
	.linkonce discard
	.align 2
	.globl	_ZNK9__gnu_cxx17__normal_iteratorIPcNSt7__cxx1112basic_stringIcSt11char_traitsIcESaIcEEEE4baseEv
	.def	_ZNK9__gnu_cxx17__normal_iteratorIPcNSt7__cxx1112basic_stringIcSt11char_traitsIcESaIcEEEE4baseEv;	.scl	2;	.type	32;	.endef
	.seh_proc	_ZNK9__gnu_cxx17__normal_iteratorIPcNSt7__cxx1112basic_stringIcSt11char_traitsIcESaIcEEEE4baseEv
_ZNK9__gnu_cxx17__normal_iteratorIPcNSt7__cxx1112basic_stringIcSt11char_traitsIcESaIcEEEE4baseEv:
.LFB2599:
	pushq	%rbp
	.seh_pushreg	%rbp
	movq	%rsp, %rbp
	.seh_setframe	%rbp, 0
	.seh_endprologue
	movq	%rcx, 16(%rbp)
	movq	16(%rbp), %rax
	popq	%rbp
	ret
	.seh_endproc
	.section .rdata,"dr"
_ZNSt8__detail30__integer_to_chars_is_unsignedIjEE:
	.byte	1
_ZNSt8__detail30__integer_to_chars_is_unsignedImEE:
	.byte	1
_ZNSt8__detail30__integer_to_chars_is_unsignedIyEE:
	.byte	1
	.ident	"GCC: (Rev3, Built by MSYS2 project) 13.2.0"
	.def	memcmp;	.scl	2;	.type	32;	.endef
	.def	_ZNSt7__cxx1112basic_stringIcSt11char_traitsIcESaIcEEixEy;	.scl	2;	.type	32;	.endef
	.def	_Unwind_Resume;	.scl	2;	.type	32;	.endef
	.def	_ZNSt7__cxx1112basic_stringIcSt11char_traitsIcESaIcEED1Ev;	.scl	2;	.type	32;	.endef
	.def	_ZNSt7__cxx1112basic_stringIcSt11char_traitsIcESaIcEEC1Ev;	.scl	2;	.type	32;	.endef
	.def	_ZStlsISt11char_traitsIcEERSt13basic_ostreamIcT_ES5_PKc;	.scl	2;	.type	32;	.endef
	.def	_ZStrsIcSt11char_traitsIcESaIcEERSt13basic_istreamIT_T0_ES7_RNSt7__cxx1112basic_stringIS4_S5_T1_EE;	.scl	2;	.type	32;	.endef
	.def	_ZNSt7__cxx1112basic_stringIcSt11char_traitsIcESaIcEE5beginEv;	.scl	2;	.type	32;	.endef
	.def	_ZNSt7__cxx1112basic_stringIcSt11char_traitsIcESaIcEE3endEv;	.scl	2;	.type	32;	.endef
	.def	_ZNSolsEPFRSoS_E;	.scl	2;	.type	32;	.endef
	.def	_ZNSt7__cxx1112basic_stringIcSt11char_traitsIcESaIcEE13_M_local_dataEv;	.scl	2;	.type	32;	.endef
	.def	_ZNSt7__cxx1112basic_stringIcSt11char_traitsIcESaIcEE12_Alloc_hiderC1EPcRKS3_;	.scl	2;	.type	32;	.endef
	.def	_ZNSt7__cxx1112basic_stringIcSt11char_traitsIcESaIcEE12_M_constructEyc;	.scl	2;	.type	32;	.endef
	.def	_ZNKSt7__cxx1112basic_stringIcSt11char_traitsIcESaIcEE4sizeEv;	.scl	2;	.type	32;	.endef
	.def	_ZNKSt7__cxx1112basic_stringIcSt11char_traitsIcESaIcEE4dataEv;	.scl	2;	.type	32;	.endef
	.section	.rdata$.refptr._ZSt4endlIcSt11char_traitsIcEERSt13basic_ostreamIT_T0_ES6_, "dr"
	.globl	.refptr._ZSt4endlIcSt11char_traitsIcEERSt13basic_ostreamIT_T0_ES6_
	.linkonce	discard
.refptr._ZSt4endlIcSt11char_traitsIcEERSt13basic_ostreamIT_T0_ES6_:
	.quad	_ZSt4endlIcSt11char_traitsIcEERSt13basic_ostreamIT_T0_ES6_
	.section	.rdata$.refptr._ZSt3cin, "dr"
	.globl	.refptr._ZSt3cin
	.linkonce	discard
.refptr._ZSt3cin:
	.quad	_ZSt3cin
	.section	.rdata$.refptr._ZSt4cout, "dr"
	.globl	.refptr._ZSt4cout
	.linkonce	discard
.refptr._ZSt4cout:
	.quad	_ZSt4cout
